target datalayout = "e-m:e-p270:32:32-p271:32:32-p272:64:64-i64:64-i128:128-f80:128-n8:16:32:64-S128"
target triple = "x86_64-pc-linux-gnu"

%struct.Ivy_Obj_t_ = type { i32, i32, i32, i32, ptr, ptr, ptr, ptr, ptr, ptr, ptr, ptr }

; Function Attrs: inlinehint nounwind uwtable
define internal void @Ivy_ObjSetClassNodeRepr(ptr noundef %0, ptr noundef %1) #4 {
  %3 = alloca ptr, align 8
  %4 = alloca ptr, align 8
  store ptr %0, ptr %3, align 8, !tbaa !72
  store ptr %1, ptr %4, align 8, !tbaa !72
  %5 = load ptr, ptr %4, align 8, !tbaa !72
  %6 = load ptr, ptr %3, align 8, !tbaa !72
  %7 = getelementptr inbounds nuw %struct.Ivy_Obj_t_, ptr %6, i32 0, i32 7
  store ptr %5, ptr %7, align 8, !tbaa !79
  ret void
}

; Function Attrs: inlinehint nounwind uwtable
define internal void @Ivy_ObjSetClassNodeLast(ptr noundef %0, ptr noundef %1) #4 {
  %3 = alloca ptr, align 8
  %4 = alloca ptr, align 8
  store ptr %0, ptr %3, align 8, !tbaa !72
  store ptr %1, ptr %4, align 8, !tbaa !72
  %5 = load ptr, ptr %4, align 8, !tbaa !72
  %6 = load ptr, ptr %3, align 8, !tbaa !72
  %7 = getelementptr inbounds nuw %struct.Ivy_Obj_t_, ptr %6, i32 0, i32 7
  store ptr %5, ptr %7, align 8, !tbaa !79
  ret void
}

; Function Attrs: inlinehint nounwind uwtable
define internal ptr @Ivy_ObjClassNodeLast(ptr noundef %0) #4 {
  %2 = alloca ptr, align 8
  store ptr %0, ptr %2, align 8, !tbaa !72
  %3 = load ptr, ptr %2, align 8, !tbaa !72
  %4 = getelementptr inbounds nuw %struct.Ivy_Obj_t_, ptr %3, i32 0, i32 7
  %5 = load ptr, ptr %4, align 8, !tbaa !79
  ret ptr %5
}

; Function Attrs: inlinehint nounwind uwtable
define internal void @Ivy_ObjSetClassNodeNext(ptr noundef %0, ptr noundef %1) #4 {
  %3 = alloca ptr, align 8
  %4 = alloca ptr, align 8
  store ptr %0, ptr %3, align 8, !tbaa !72
  store ptr %1, ptr %4, align 8, !tbaa !72
  %5 = load ptr, ptr %4, align 8, !tbaa !72
  %6 = load ptr, ptr %3, align 8, !tbaa !72
  %7 = getelementptr inbounds nuw %struct.Ivy_Obj_t_, ptr %6, i32 0, i32 8
  store ptr %5, ptr %7, align 8, !tbaa !78
  ret void
}

; Function Attrs: inlinehint nounwind uwtable
define internal ptr @Ivy_ObjClassNodeNext(ptr noundef %0) #4 {
  %2 = alloca ptr, align 8
  store ptr %0, ptr %2, align 8, !tbaa !72
  %3 = load ptr, ptr %2, align 8, !tbaa !72
  %4 = getelementptr inbounds nuw %struct.Ivy_Obj_t_, ptr %3, i32 0, i32 8
  %5 = load ptr, ptr %4, align 8, !tbaa !78
  ret ptr %5
}

; Function Attrs: nounwind uwtable
define void @Ivy_NodeAddToClass(ptr noundef %0, ptr noundef %1) #0 {
  %3 = alloca ptr, align 8
  %4 = alloca ptr, align 8
  store ptr %0, ptr %3, align 8, !tbaa !72
  store ptr %1, ptr %4, align 8, !tbaa !72
  %5 = load ptr, ptr %3, align 8, !tbaa !72
  %6 = call ptr @Ivy_ObjClassNodeNext(ptr noundef %5)
  %7 = icmp eq ptr %6, null
  br i1 %7, label %8, label %11

8:                                                ; preds = %2
  %9 = load ptr, ptr %3, align 8, !tbaa !72
  %10 = load ptr, ptr %4, align 8, !tbaa !72
  call void @Ivy_ObjSetClassNodeNext(ptr noundef %9, ptr noundef %10)
  br label %15

11:                                               ; preds = %2
  %12 = load ptr, ptr %3, align 8, !tbaa !72
  %13 = call ptr @Ivy_ObjClassNodeLast(ptr noundef %12)
  %14 = load ptr, ptr %4, align 8, !tbaa !72
  call void @Ivy_ObjSetClassNodeNext(ptr noundef %13, ptr noundef %14)
  br label %15

15:                                               ; preds = %11, %8
  %16 = load ptr, ptr %3, align 8, !tbaa !72
  %17 = load ptr, ptr %4, align 8, !tbaa !72
  call void @Ivy_ObjSetClassNodeLast(ptr noundef %16, ptr noundef %17)
  %18 = load ptr, ptr %4, align 8, !tbaa !72
  %19 = load ptr, ptr %3, align 8, !tbaa !72
  call void @Ivy_ObjSetClassNodeRepr(ptr noundef %18, ptr noundef %19)
  %20 = load ptr, ptr %4, align 8, !tbaa !72
  call void @Ivy_ObjSetClassNodeNext(ptr noundef %20, ptr noundef null)
  ret void
}