; Function Attrs: mustprogress nofree norecurse nosync nounwind willreturn memory(write, argmem: readwrite, inaccessiblemem: none) uwtable
define void @Ivy_NodeAddToClass(ptr noundef %0, ptr noundef %1) local_unnamed_addr #12 {
  %3 = getelementptr i8, ptr %0, i64 48
  %.val = load ptr, ptr %3, align 8, !tbaa !94
  %4 = icmp eq ptr %.val, null
  br i1 %4, label %5, label %6

5:                                                ; preds = %2
  store ptr %1, ptr %3, align 8, !tbaa !94
  br label %9

6:                                                ; preds = %2
  %7 = getelementptr i8, ptr %0, i64 40
  %.val10 = load ptr, ptr %7, align 8, !tbaa !126
  %8 = getelementptr inbounds nuw i8, ptr %.val10, i64 48
  store ptr %1, ptr %8, align 8, !tbaa !94
  br label %9

9:                                                ; preds = %6, %5
  %10 = getelementptr inbounds nuw i8, ptr %0, i64 40
  store ptr %1, ptr %10, align 8, !tbaa !126
  %11 = getelementptr inbounds nuw i8, ptr %1, i64 40
  store ptr %0, ptr %11, align 8, !tbaa !126
  %12 = getelementptr inbounds nuw i8, ptr %1, i64 48
  store ptr null, ptr %12, align 8, !tbaa !94
  ret void
}